EXPORTS 
	??_R0?AUCRCMenuParent@@@8 	 DATA
	??_R0?AUClassFactory@@@8 	 DATA
	??_R0?AUCommandEnum@@@8 	 DATA
	??_R0?AUExplorerCommandBase@@@8 	 DATA
	??_R0?AUExplorerCommandRoot@@@8 	 DATA
	??_R0?AUIClassFactory@@@8 	 DATA
	??_R0?AUIEnumExplorerCommand@@@8 	 DATA
	??_R0?AUIExplorerCommand@@@8 	 DATA
	??_R0?AUIUnknown@@@8 	 DATA
	??_R0?AVbad_alloc@std@@@8 	 DATA
	??_R0?AVbad_array_new_length@std@@@8 	 DATA
	??_R0?AVexception@std@@@8 	 DATA
	_Avx2WmemEnabledWeakValue 	 DATA
	??$?0$$V@?$_Compressed_pair@V?$allocator@PEAUIExplorerCommand@@@std@@V?$_Vector_val@U?$_Simple_types@PEAUIExplorerCommand@@@std@@@2@$00@std@@QEAA@U_Zero_then_variadic_args_t@1@@Z
	??$?0$$V@?$_Compressed_pair@V?$allocator@V?$basic_string@_WU?$char_traits@_W@std@@V?$allocator@_W@2@@std@@@std@@V?$_Vector_val@U?$_Simple_types@V?$basic_string@_WU?$char_traits@_W@std@@V?$allocator@_W@2@@std@@@std@@@2@$00@std@@QEAA@U_Zero_then_variadic_args_t@1@@Z
	??$?0$$V@?$_Compressed_pair@V?$allocator@_W@std@@V?$_String_val@U?$_Simple_types@_W@std@@@2@$00@std@@QEAA@U_Zero_then_variadic_args_t@1@@Z
	??$?0AEAV?$allocator@_W@std@@$$V@?$_Compressed_pair@V?$allocator@_W@std@@V?$_String_val@U?$_Simple_types@_W@std@@@2@$00@std@@QEAA@U_One_then_variadic_args_t@1@AEAV?$allocator@_W@1@@Z
	??$?0AEBV?$allocator@_W@std@@$$V@?$_Compressed_pair@V?$allocator@_W@std@@V?$_String_val@U?$_Simple_types@_W@std@@@2@$00@std@@QEAA@U_One_then_variadic_args_t@1@AEBV?$allocator@_W@1@@Z
	??$?0V?$allocator@PEAUIExplorerCommand@@@std@@$$V@?$_Compressed_pair@V?$allocator@PEAUIExplorerCommand@@@std@@V?$_Vector_val@U?$_Simple_types@PEAUIExplorerCommand@@@std@@@2@$00@std@@QEAA@U_One_then_variadic_args_t@1@$$QEAV?$allocator@PEAUIExplorerCommand@@@1@@Z
	??$?0V?$allocator@_W@std@@$$V@?$_Compressed_pair@V?$allocator@_W@std@@V?$_String_val@U?$_Simple_types@_W@std@@@2@$00@std@@QEAA@U_One_then_variadic_args_t@1@$$QEAV?$allocator@_W@1@@Z
	??$?0V?$basic_string@_WU?$char_traits@_W@std@@V?$allocator@_W@2@@std@@$0A@@path@filesystem@std@@QEAA@AEBV?$basic_string@_WU?$char_traits@_W@std@@V?$allocator@_W@2@@2@W4format@012@@Z
	??$?0V?$basic_string_view@_WU?$char_traits@_W@std@@@std@@$0A@@?$basic_string@_WU?$char_traits@_W@std@@V?$allocator@_W@2@@std@@QEAA@AEBV?$basic_string_view@_WU?$char_traits@_W@std@@@1@AEBV?$allocator@_W@1@@Z
	??$?0V?$basic_string_view@_WU?$char_traits@_W@std@@@std@@$0A@@path@filesystem@std@@QEAA@AEBV?$basic_string_view@_WU?$char_traits@_W@std@@@2@W4format@012@@Z
	??$?H_WU?$char_traits@_W@std@@V?$allocator@_W@1@@std@@YA?AV?$basic_string@_WU?$char_traits@_W@std@@V?$allocator@_W@2@@0@$$QEAV10@0@Z
	??$?H_WU?$char_traits@_W@std@@V?$allocator@_W@1@@std@@YA?AV?$basic_string@_WU?$char_traits@_W@std@@V?$allocator@_W@2@@0@$$QEAV10@AEBV10@@Z
	??$?H_WU?$char_traits@_W@std@@V?$allocator@_W@1@@std@@YA?AV?$basic_string@_WU?$char_traits@_W@std@@V?$allocator@_W@2@@0@$$QEAV10@QEB_W@Z
	??$?H_WU?$char_traits@_W@std@@V?$allocator@_W@1@@std@@YA?AV?$basic_string@_WU?$char_traits@_W@std@@V?$allocator@_W@2@@0@QEB_W$$QEAV10@@Z
	??$?H_WU?$char_traits@_W@std@@V?$allocator@_W@1@@std@@YA?AV?$basic_string@_WU?$char_traits@_W@std@@V?$allocator@_W@2@@0@QEB_WAEBV10@@Z
	??$_Adl_verify_range@PEB_WPEB_W@std@@YAXAEBQEB_W0@Z
	??$_Allocate@$0BA@U_Default_allocate_traits@std@@@std@@YAPEAX_K@Z
	??$_Allocate_at_least_helper@V?$allocator@PEAUIExplorerCommand@@@std@@@std@@YAPEAPEAUIExplorerCommand@@AEAV?$allocator@PEAUIExplorerCommand@@@0@AEA_K@Z
	??$_Allocate_at_least_helper@V?$allocator@V?$basic_string@_WU?$char_traits@_W@std@@V?$allocator@_W@2@@std@@@std@@@std@@YAPEAV?$basic_string@_WU?$char_traits@_W@std@@V?$allocator@_W@2@@0@AEAV?$allocator@V?$basic_string@_WU?$char_traits@_W@std@@V?$allocator@_W@2@@std@@@0@AEA_K@Z
	??$_Allocate_at_least_helper@V?$allocator@_W@std@@@std@@YAPEA_WAEAV?$allocator@_W@0@AEA_K@Z
	??$_Allocate_for_capacity@$0A@@?$basic_string@_WU?$char_traits@_W@std@@V?$allocator@_W@2@@std@@CAPEA_WAEAV?$allocator@_W@1@AEA_K@Z
	??$_Allocate_manually_vector_aligned@U_Default_allocate_traits@std@@@std@@YAPEAX_K@Z
	??$_Allocators_equal@V?$allocator@_W@std@@@std@@YA_NAEBV?$allocator@_W@0@0@Z
	??$_Construct@$00PEB_W@?$basic_string@_WU?$char_traits@_W@std@@V?$allocator@_W@2@@std@@AEAAXQEB_W_K@Z
	??$_Construct@$01PEB_W@?$basic_string@_WU?$char_traits@_W@std@@V?$allocator@_W@2@@std@@AEAAXQEB_W_K@Z
	??$_Construct_in_place@PEAUIExplorerCommand@@PEAU1@@std@@YAXAEAPEAUIExplorerCommand@@$$QEAPEAU1@@Z
	??$_Construct_in_place@PEA_WAEAPEA_W@std@@YAXAEAPEA_W0@Z
	??$_Construct_in_place@PEA_WAEBQEA_W@std@@YAXAEAPEA_WAEBQEA_W@Z
	??$_Construct_in_place@V?$basic_string@_WU?$char_traits@_W@std@@V?$allocator@_W@2@@std@@V12@@std@@YAXAEAV?$basic_string@_WU?$char_traits@_W@std@@V?$allocator@_W@2@@0@$$QEAV10@@Z
	??$_Construct_n@AEBQEAPEAUIExplorerCommand@@AEBQEAPEAU1@@?$vector@PEAUIExplorerCommand@@V?$allocator@PEAUIExplorerCommand@@@std@@@std@@AEAAX_KAEBQEAPEAUIExplorerCommand@@1@Z
	??$_Convert_Source_to_wide@V?$basic_string@_WU?$char_traits@_W@std@@V?$allocator@_W@2@@std@@U_Normal_conversion@filesystem@2@@filesystem@std@@YA?AV?$basic_string@_WU?$char_traits@_W@std@@V?$allocator@_W@2@@1@AEBV21@U_Normal_conversion@01@@Z
	??$_Convert_Source_to_wide@V?$basic_string_view@_WU?$char_traits@_W@std@@@std@@U_Normal_conversion@filesystem@2@@filesystem@std@@YA?AV?$basic_string@_WU?$char_traits@_W@std@@V?$allocator@_W@2@@1@AEBV?$basic_string_view@_WU?$char_traits@_W@std@@@1@U_Normal_conversion@01@@Z
	??$_Convert_size@_K_K@std@@YA_K_K@Z
	??$_Convert_stringoid_to_wide@U_Normal_conversion@filesystem@std@@@filesystem@std@@YA?AV?$basic_string@_WU?$char_traits@_W@std@@V?$allocator@_W@2@@1@V?$basic_string_view@_WU?$char_traits@_W@std@@@1@U_Normal_conversion@01@@Z
	??$_Copy_memmove@PEAPEAUIExplorerCommand@@PEAPEAU1@@std@@YAPEAPEAUIExplorerCommand@@PEAPEAU1@00@Z
	??$_Copy_memmove_tail@PEAPEAUIExplorerCommand@@@std@@YAPEAPEAUIExplorerCommand@@QEBDQEAPEAU1@_K2@Z
	??$_Could_compare_equal_to_value_type@PEB_W_W@std@@YA_NAEB_W@Z
	??$_Deallocate@$0BA@@std@@YAXPEAX_K@Z
	??$_Destroy_in_place@PEA_W@std@@YAXAEAPEA_W@Z
	??$_Destroy_range@V?$allocator@PEAUIExplorerCommand@@@std@@@std@@YAXPEAPEAUIExplorerCommand@@QEAPEAU1@AEAV?$allocator@PEAUIExplorerCommand@@@0@@Z
	??$_Destroy_range@V?$allocator@V?$basic_string@_WU?$char_traits@_W@std@@V?$allocator@_W@2@@std@@@std@@@std@@YAXPEAV?$basic_string@_WU?$char_traits@_W@std@@V?$allocator@_W@2@@0@QEAV10@AEAV?$allocator@V?$basic_string@_WU?$char_traits@_W@std@@V?$allocator@_W@2@@std@@@0@@Z
	??$_Emplace_back@AEAPEAUIExplorerCommand@@@?$_Uninitialized_backout_al@V?$allocator@PEAUIExplorerCommand@@@std@@@std@@QEAAXAEAPEAUIExplorerCommand@@@Z
	??$_Emplace_back@PEAUIExplorerCommand@@@?$_Uninitialized_backout_al@V?$allocator@PEAUIExplorerCommand@@@std@@@std@@QEAAX$$QEAPEAUIExplorerCommand@@@Z
	??$_Emplace_back@V?$basic_string@_WU?$char_traits@_W@std@@V?$allocator@_W@2@@std@@@?$_Uninitialized_backout_al@V?$allocator@V?$basic_string@_WU?$char_traits@_W@std@@V?$allocator@_W@2@@std@@@std@@@std@@QEAAX$$QEAV?$basic_string@_WU?$char_traits@_W@std@@V?$allocator@_W@2@@1@@Z
	??$_Emplace_back_with_unused_capacity@PEAUIExplorerCommand@@@?$vector@PEAUIExplorerCommand@@V?$allocator@PEAUIExplorerCommand@@@std@@@std@@AEAAAEAPEAUIExplorerCommand@@$$QEAPEAU2@@Z
	??$_Emplace_back_with_unused_capacity@V?$basic_string@_WU?$char_traits@_W@std@@V?$allocator@_W@2@@std@@@?$vector@V?$basic_string@_WU?$char_traits@_W@std@@V?$allocator@_W@2@@std@@V?$allocator@V?$basic_string@_WU?$char_traits@_W@std@@V?$allocator@_W@2@@std@@@2@@std@@AEAAAEAV?$basic_string@_WU?$char_traits@_W@std@@V?$allocator@_W@2@@1@$$QEAV21@@Z
	??$_Emplace_one_at_back@PEAUIExplorerCommand@@@?$vector@PEAUIExplorerCommand@@V?$allocator@PEAUIExplorerCommand@@@std@@@std@@AEAAAEAPEAUIExplorerCommand@@$$QEAPEAU2@@Z
	??$_Emplace_one_at_back@V?$basic_string@_WU?$char_traits@_W@std@@V?$allocator@_W@2@@std@@@?$vector@V?$basic_string@_WU?$char_traits@_W@std@@V?$allocator@_W@2@@std@@V?$allocator@V?$basic_string@_WU?$char_traits@_W@std@@V?$allocator@_W@2@@std@@@2@@std@@AEAAAEAV?$basic_string@_WU?$char_traits@_W@std@@V?$allocator@_W@2@@1@$$QEAV21@@Z
	??$_Emplace_reallocate@PEAUIExplorerCommand@@@?$vector@PEAUIExplorerCommand@@V?$allocator@PEAUIExplorerCommand@@@std@@@std@@AEAAPEAPEAUIExplorerCommand@@QEAPEAU2@$$QEAPEAU2@@Z
	??$_Emplace_reallocate@V?$basic_string@_WU?$char_traits@_W@std@@V?$allocator@_W@2@@std@@@?$vector@V?$basic_string@_WU?$char_traits@_W@std@@V?$allocator@_W@2@@std@@V?$allocator@V?$basic_string@_WU?$char_traits@_W@std@@V?$allocator@_W@2@@std@@@2@@std@@AEAAPEAV?$basic_string@_WU?$char_traits@_W@std@@V?$allocator@_W@2@@1@QEAV21@$$QEAV21@@Z
	??$_Find_unchecked@PEB_W_W@std@@YAPEB_WPEB_WQEB_WAEB_W@Z
	??$_Find_vectorized@$$CB_W_W@std@@YAPEB_WQEB_W0_W@Z
	??$_Get_size_of_n@$01@std@@YA_K_K@Z
	??$_Get_size_of_n@$07@std@@YA_K_K@Z
	??$_Get_size_of_n@$0CA@@std@@YA_K_K@Z
	??$_Get_unwrapped@AEAPEB_W@std@@YA?A_TAEAPEB_W@Z
	??$_Get_unwrapped@AEBQEAPEAUIExplorerCommand@@@std@@YA?A_TAEBQEAPEAUIExplorerCommand@@@Z
	??$_Get_unwrapped@AEBQEAV?$basic_string@_WU?$char_traits@_W@std@@V?$allocator@_W@2@@std@@@std@@YA?A_TAEBQEAV?$basic_string@_WU?$char_traits@_W@std@@V?$allocator@_W@2@@0@@Z
	??$_Get_unwrapped@AEBQEB_W@std@@YA?A_TAEBQEB_W@Z
	??$_Get_unwrapped@PEAPEAUIExplorerCommand@@@std@@YA?A_T$$QEAPEAPEAUIExplorerCommand@@@Z
	??$_Getvals@_W@?$time_get@DV?$istreambuf_iterator@DU?$char_traits@D@std@@@std@@@std@@IEAAX_WAEBV_Locinfo@1@@Z
	??$_Getvals@_W@?$time_get@_WV?$istreambuf_iterator@_WU?$char_traits@_W@std@@@std@@@std@@IEAAX_WAEBV_Locinfo@1@@Z
	??$_Max_limit@_J@std@@YA_JXZ
	??$_Pocca@V?$allocator@_W@std@@@std@@YAXAEAV?$allocator@_W@0@AEBV10@@Z
	??$_Pocma@V?$allocator@_W@std@@@std@@YAXAEAV?$allocator@_W@0@0@Z
	??$_Reallocate_for@V<lambda_3fa8b2c8193a0f3144fc4b1b8f243931>@@PEB_W@?$basic_string@_WU?$char_traits@_W@std@@V?$allocator@_W@2@@std@@AEAAAEAV01@_KV<lambda_3fa8b2c8193a0f3144fc4b1b8f243931>@@PEB_W@Z
	??$_Reallocate_grow_by@V<lambda_1dfe18491bcca09701d8ccb01d0b0af4>@@PEB_W_K@?$basic_string@_WU?$char_traits@_W@std@@V?$allocator@_W@2@@std@@AEAAAEAV01@_KV<lambda_1dfe18491bcca09701d8ccb01d0b0af4>@@PEB_W_K@Z
	??$_Reallocate_grow_by@V<lambda_25953b27f3c43b57ba59f021c7f225c5>@@_W@?$basic_string@_WU?$char_traits@_W@std@@V?$allocator@_W@2@@std@@AEAAAEAV01@_KV<lambda_25953b27f3c43b57ba59f021c7f225c5>@@_W@Z
	??$_Reallocate_grow_by@V<lambda_967c2ed818824c5314a20ec3af46b793>@@_KPEB_W_K@?$basic_string@_WU?$char_traits@_W@std@@V?$allocator@_W@2@@std@@AEAAAEAV01@_KV<lambda_967c2ed818824c5314a20ec3af46b793>@@_KPEB_W2@Z
	??$_Reallocate_grow_by@V<lambda_d27e2b2d334e86d578b418f53091db3c>@@$$V@?$basic_string@_WU?$char_traits@_W@std@@V?$allocator@_W@2@@std@@AEAAAEAV01@_KV<lambda_d27e2b2d334e86d578b418f53091db3c>@@@Z
	??$_Resize_and_overwrite@V<lambda_a24d838e24f7bf386b11b5deac1e9da7>@@@?$basic_string@_WU?$char_traits@_W@std@@V?$allocator@_W@2@@std@@QEAAX_KV<lambda_a24d838e24f7bf386b11b5deac1e9da7>@@@Z
	??$_Seek_wrapped@PEB_WAEAPEB_W@std@@YAXAEAPEB_W0@Z
	??$_Seek_wrapped@PEB_WPEB_W@std@@YAXAEAPEB_W$$QEAPEB_W@Z
	??$_Stringoid_from_Source@_WU?$char_traits@_W@std@@@filesystem@std@@YA?A_PAEBV?$basic_string_view@_WU?$char_traits@_W@std@@@1@@Z
	??$_Stringoid_from_Source@_WU?$char_traits@_W@std@@V?$allocator@_W@2@@filesystem@std@@YA?A_PAEBV?$basic_string@_WU?$char_traits@_W@std@@V?$allocator@_W@2@@1@@Z
	??$_To_address@PEAPEAUIExplorerCommand@@@std@@YA?A_PAEBQEAPEAUIExplorerCommand@@@Z
	??$_To_address@PEB_W@std@@YA?A_PAEBQEB_W@Z
	??$_Traits_compare@U?$char_traits@_W@std@@@std@@YAHQEB_W_K01@Z
	??$_Unfancy@PEAUIExplorerCommand@@@std@@YAPEAPEAUIExplorerCommand@@PEAPEAU1@@Z
	??$_Unfancy@V?$basic_string@_WU?$char_traits@_W@std@@V?$allocator@_W@2@@std@@@std@@YAPEAV?$basic_string@_WU?$char_traits@_W@std@@V?$allocator@_W@2@@0@PEAV10@@Z
	??$_Unfancy@_W@std@@YAPEA_WPEA_W@Z
	??$_Unfancy_maybe_null@PEAUIExplorerCommand@@@std@@YAPEAPEAUIExplorerCommand@@PEAPEAU1@@Z
	??$_Unfancy_maybe_null@V?$basic_string@_WU?$char_traits@_W@std@@V?$allocator@_W@2@@std@@@std@@YAPEAV?$basic_string@_WU?$char_traits@_W@std@@V?$allocator@_W@2@@0@PEAV10@@Z
	??$_Uninitialized_copy@PEAPEAUIExplorerCommand@@PEAPEAU1@V?$allocator@PEAUIExplorerCommand@@@std@@@std@@YAPEAPEAUIExplorerCommand@@PEAPEAU1@00AEAV?$allocator@PEAUIExplorerCommand@@@0@@Z
	??$_Uninitialized_move@PEAPEAUIExplorerCommand@@V?$allocator@PEAUIExplorerCommand@@@std@@@std@@YAPEAPEAUIExplorerCommand@@QEAPEAU1@0PEAPEAU1@AEAV?$allocator@PEAUIExplorerCommand@@@0@@Z
	??$_Uninitialized_move@PEAV?$basic_string@_WU?$char_traits@_W@std@@V?$allocator@_W@2@@std@@V?$allocator@V?$basic_string@_WU?$char_traits@_W@std@@V?$allocator@_W@2@@std@@@2@@std@@YAPEAV?$basic_string@_WU?$char_traits@_W@std@@V?$allocator@_W@2@@0@QEAV10@0PEAV10@AEAV?$allocator@V?$basic_string@_WU?$char_traits@_W@std@@V?$allocator@_W@2@@std@@@0@@Z
	??$addressof@$$CBV?$basic_string@_WU?$char_traits@_W@std@@V?$allocator@_W@2@@std@@@std@@YAPEBV?$basic_string@_WU?$char_traits@_W@std@@V?$allocator@_W@2@@0@AEBV10@@Z
	??$addressof@PEAUIExplorerCommand@@@std@@YAPEAPEAUIExplorerCommand@@AEAPEAU1@@Z
	??$addressof@PEA_W@std@@YAPEAPEA_WAEAPEA_W@Z
	??$addressof@V?$_String_val@U?$_Simple_types@_W@std@@@std@@@std@@YAPEAV?$_String_val@U?$_Simple_types@_W@std@@@0@AEAV10@@Z
	??$addressof@V?$basic_string@_WU?$char_traits@_W@std@@V?$allocator@_W@2@@std@@@std@@YAPEAV?$basic_string@_WU?$char_traits@_W@std@@V?$allocator@_W@2@@0@AEAV10@@Z
	??$construct@PEAUIExplorerCommand@@AEAPEAU1@@?$_Default_allocator_traits@V?$allocator@PEAUIExplorerCommand@@@std@@@std@@SAXAEAV?$allocator@PEAUIExplorerCommand@@@1@QEAPEAUIExplorerCommand@@AEAPEAU3@@Z
	??$construct@PEAUIExplorerCommand@@PEAU1@@?$_Default_allocator_traits@V?$allocator@PEAUIExplorerCommand@@@std@@@std@@SAXAEAV?$allocator@PEAUIExplorerCommand@@@1@QEAPEAUIExplorerCommand@@$$QEAPEAU3@@Z
	??$construct@V?$basic_string@_WU?$char_traits@_W@std@@V?$allocator@_W@2@@std@@V12@@?$_Default_allocator_traits@V?$allocator@V?$basic_string@_WU?$char_traits@_W@std@@V?$allocator@_W@2@@std@@@std@@@std@@SAXAEAV?$allocator@V?$basic_string@_WU?$char_traits@_W@std@@V?$allocator@_W@2@@std@@@1@QEAV?$basic_string@_WU?$char_traits@_W@std@@V?$allocator@_W@2@@1@$$QEAV31@@Z
	??$destroy@V?$basic_string@_WU?$char_traits@_W@std@@V?$allocator@_W@2@@std@@@?$_Default_allocator_traits@V?$allocator@V?$basic_string@_WU?$char_traits@_W@std@@V?$allocator@_W@2@@std@@@std@@@std@@SAXAEAV?$allocator@V?$basic_string@_WU?$char_traits@_W@std@@V?$allocator@_W@2@@std@@@1@QEAV?$basic_string@_WU?$char_traits@_W@std@@V?$allocator@_W@2@@1@@Z
	??$find@PEB_W_W@std@@YAPEB_WPEB_WQEB_WAEB_W@Z
	??$find_if@PEB_WU_Is_slash_oper@filesystem@std@@@std@@YAPEB_WPEB_WQEB_WU_Is_slash_oper@filesystem@0@@Z
	??$find_if_not@PEB_WU_Is_slash_oper@filesystem@std@@@std@@YAPEB_WPEB_WQEB_WU_Is_slash_oper@filesystem@0@@Z
	??$forward@AEAPEAUIExplorerCommand@@@std@@YAAEAPEAUIExplorerCommand@@AEAPEAU1@@Z
	??$forward@AEAPEA_W@std@@YAAEAPEA_WAEAPEA_W@Z
	??$forward@AEAPEB_W@std@@YAAEAPEB_WAEAPEB_W@Z
	??$forward@AEAV?$allocator@_W@std@@@std@@YAAEAV?$allocator@_W@0@AEAV10@@Z
	??$forward@AEBQEAPEAUIExplorerCommand@@@std@@YAAEBQEAPEAUIExplorerCommand@@AEBQEAPEAU1@@Z
	??$forward@AEBQEA_W@std@@YAAEBQEA_WAEBQEA_W@Z
	??$forward@AEBV?$allocator@_W@std@@@std@@YAAEBV?$allocator@_W@0@AEBV10@@Z
	??$forward@PEAUIExplorerCommand@@@std@@YA$$QEAPEAUIExplorerCommand@@AEAPEAU1@@Z
	??$forward@PEB_W@std@@YA$$QEAPEB_WAEAPEB_W@Z
	??$forward@V?$allocator@PEAUIExplorerCommand@@@std@@@std@@YA$$QEAV?$allocator@PEAUIExplorerCommand@@@0@AEAV10@@Z
	??$forward@V?$allocator@_W@std@@@std@@YA$$QEAV?$allocator@_W@0@AEAV10@@Z
	??$forward@V?$basic_string@_WU?$char_traits@_W@std@@V?$allocator@_W@2@@std@@@std@@YA$$QEAV?$basic_string@_WU?$char_traits@_W@std@@V?$allocator@_W@2@@0@AEAV10@@Z
	??$max@_K@std@@YAAEB_KAEB_K0@Z
	??$min@_K@std@@YAAEB_KAEB_K0@Z
	??$move@AEAPEAPEAUIExplorerCommand@@@std@@YA$$QEAPEAPEAUIExplorerCommand@@AEAPEAPEAU1@@Z
	??$move@AEAPEAUIExplorerCommand@@@std@@YA$$QEAPEAUIExplorerCommand@@AEAPEAU1@@Z
	??$move@AEAV<lambda_a24d838e24f7bf386b11b5deac1e9da7>@@@std@@YA$$QEAV<lambda_a24d838e24f7bf386b11b5deac1e9da7>@@AEAV1@@Z
	??$move@AEAV?$allocator@_W@std@@@std@@YA$$QEAV?$allocator@_W@0@AEAV10@@Z
	??$move@AEAV?$basic_string@_WU?$char_traits@_W@std@@V?$allocator@_W@2@@std@@@std@@YA$$QEAV?$basic_string@_WU?$char_traits@_W@std@@V?$allocator@_W@2@@0@AEAV10@@Z
	??$wcscpy_s@$0BAE@@@YAHAEAY0BAE@_WPEB_W@Z
	??0<lambda_a24d838e24f7bf386b11b5deac1e9da7>@@QEAA@AEBQEB_WAEB_KAEB_N01@Z
	??0?$_String_val@U?$_Simple_types@_W@std@@@std@@QEAA@XZ
	??0?$_Uninitialized_backout_al@V?$allocator@PEAUIExplorerCommand@@@std@@@std@@QEAA@PEAPEAUIExplorerCommand@@AEAV?$allocator@PEAUIExplorerCommand@@@1@@Z
	??0?$_Uninitialized_backout_al@V?$allocator@V?$basic_string@_WU?$char_traits@_W@std@@V?$allocator@_W@2@@std@@@std@@@std@@QEAA@PEAV?$basic_string@_WU?$char_traits@_W@std@@V?$allocator@_W@2@@1@AEAV?$allocator@V?$basic_string@_WU?$char_traits@_W@std@@V?$allocator@_W@2@@std@@@1@@Z
	??0?$_Vector_val@U?$_Simple_types@PEAUIExplorerCommand@@@std@@@std@@QEAA@XZ
	??0?$_Vector_val@U?$_Simple_types@V?$basic_string@_WU?$char_traits@_W@std@@V?$allocator@_W@2@@std@@@std@@@std@@QEAA@XZ
	??0?$allocator@PEAUIExplorerCommand@@@std@@QEAA@XZ
	??0?$allocator@V?$basic_string@_WU?$char_traits@_W@std@@V?$allocator@_W@2@@std@@@std@@QEAA@XZ
	??0?$allocator@_W@std@@QEAA@XZ
	??0?$basic_string@_WU?$char_traits@_W@std@@V?$allocator@_W@2@@std@@QEAA@$$QEAV01@@Z
	??0?$basic_string@_WU?$char_traits@_W@std@@V?$allocator@_W@2@@std@@QEAA@AEBV01@@Z
	??0?$basic_string@_WU?$char_traits@_W@std@@V?$allocator@_W@2@@std@@QEAA@QEB_W@Z
	??0?$basic_string@_WU?$char_traits@_W@std@@V?$allocator@_W@2@@std@@QEAA@U_String_constructor_concat_tag@1@AEAV01@1@Z
	??0?$basic_string@_WU?$char_traits@_W@std@@V?$allocator@_W@2@@std@@QEAA@U_String_constructor_concat_tag@1@AEBV01@QEB_W_K23@Z
	??0?$basic_string@_WU?$char_traits@_W@std@@V?$allocator@_W@2@@std@@QEAA@XZ
	??0?$basic_string_view@_WU?$char_traits@_W@std@@@std@@QEAA@QEB_W_K@Z
	??0?$vector@PEAUIExplorerCommand@@V?$allocator@PEAUIExplorerCommand@@@std@@@std@@QEAA@AEBV01@@Z
	??0?$vector@PEAUIExplorerCommand@@V?$allocator@PEAUIExplorerCommand@@@std@@@std@@QEAA@XZ
	??0?$vector@V?$basic_string@_WU?$char_traits@_W@std@@V?$allocator@_W@2@@std@@V?$allocator@V?$basic_string@_WU?$char_traits@_W@std@@V?$allocator@_W@2@@std@@@2@@std@@QEAA@XZ
	??0CRCMenuParent@@QEAA@XZ
	??0ClassFactory@@QEAA@XZ
	??0CommandEnum@@QEAA@AEBV?$vector@PEAUIExplorerCommand@@V?$allocator@PEAUIExplorerCommand@@@std@@@std@@@Z
	??0ExplorerCommandBase@@QEAA@W4CommandID@@V?$basic_string@_WU?$char_traits@_W@std@@V?$allocator@_W@2@@std@@@Z
	??0ExplorerCommandRoot@@QEAA@XZ
	??0IClassFactory@@QEAA@XZ
	??0IEnumExplorerCommand@@QEAA@XZ
	??0IExplorerCommand@@QEAA@XZ
	??0IUnknown@@QEAA@XZ
	??0_Bxty@?$_String_val@U?$_Simple_types@_W@std@@@std@@QEAA@XZ
	??0_Fake_proxy_ptr_impl@std@@QEAA@AEBU_Fake_allocator@1@AEBU_Container_base0@1@@Z
	??0bad_alloc@std@@AEAA@QEBD@Z
	??0bad_alloc@std@@QEAA@AEBV01@@Z
	??0bad_array_new_length@std@@QEAA@AEBV01@@Z
	??0bad_array_new_length@std@@QEAA@XZ
	??0exception@std@@QEAA@AEBV01@@Z
	??0exception@std@@QEAA@QEBDH@Z
	??0path@filesystem@std@@QEAA@$$QEAV012@@Z
	??0path@filesystem@std@@QEAA@$$QEAV?$basic_string@_WU?$char_traits@_W@std@@V?$allocator@_W@2@@2@@Z
	??0path@filesystem@std@@QEAA@AEBV012@@Z
	??0path@filesystem@std@@QEAA@XZ
	??1?$_Compressed_pair@V?$allocator@_W@std@@V?$_String_val@U?$_Simple_types@_W@std@@@2@$00@std@@QEAA@XZ
	??1?$_String_val@U?$_Simple_types@_W@std@@@std@@QEAA@XZ
	??1?$_Tidy_guard@V?$vector@PEAUIExplorerCommand@@V?$allocator@PEAUIExplorerCommand@@@std@@@std@@@std@@QEAA@XZ
	??1?$_Uninitialized_backout_al@V?$allocator@PEAUIExplorerCommand@@@std@@@std@@QEAA@XZ
	??1?$_Uninitialized_backout_al@V?$allocator@V?$basic_string@_WU?$char_traits@_W@std@@V?$allocator@_W@2@@std@@@std@@@std@@QEAA@XZ
	??1?$basic_string@_WU?$char_traits@_W@std@@V?$allocator@_W@2@@std@@QEAA@XZ
	??1?$vector@PEAUIExplorerCommand@@V?$allocator@PEAUIExplorerCommand@@@std@@@std@@QEAA@XZ
	??1?$vector@V?$basic_string@_WU?$char_traits@_W@std@@V?$allocator@_W@2@@std@@V?$allocator@V?$basic_string@_WU?$char_traits@_W@std@@V?$allocator@_W@2@@std@@@2@@std@@QEAA@XZ
	??1CRCMenuParent@@UEAA@XZ
	??1CommandEnum@@QEAA@XZ
	??1ExplorerCommandBase@@UEAA@XZ
	??1ExplorerCommandRoot@@QEAA@XZ
	??1_Bxty@?$_String_val@U?$_Simple_types@_W@std@@@std@@QEAA@XZ
	??1_Reallocation_guard@?$vector@PEAUIExplorerCommand@@V?$allocator@PEAUIExplorerCommand@@@std@@@std@@QEAA@XZ
	??1_Reallocation_guard@?$vector@V?$basic_string@_WU?$char_traits@_W@std@@V?$allocator@_W@2@@std@@V?$allocator@V?$basic_string@_WU?$char_traits@_W@std@@V?$allocator@_W@2@@std@@@2@@std@@QEAA@XZ
	??1bad_alloc@std@@UEAA@XZ
	??1bad_array_new_length@std@@UEAA@XZ
	??1exception@std@@UEAA@XZ
	??1path@filesystem@std@@QEAA@XZ
	??2@YAPEAX_KPEAX@Z
	??4?$basic_string@_WU?$char_traits@_W@std@@V?$allocator@_W@2@@std@@QEAAAEAV01@$$QEAV01@@Z
	??4?$basic_string@_WU?$char_traits@_W@std@@V?$allocator@_W@2@@std@@QEAAAEAV01@AEBV01@@Z
	??4?$basic_string@_WU?$char_traits@_W@std@@V?$allocator@_W@2@@std@@QEAAAEAV01@QEB_W@Z
	??4path@filesystem@std@@QEAAAEAV012@AEBV012@@Z
	??9filesystem@std@@YA_NAEBVpath@01@0@Z
	??A?$vector@PEAUIExplorerCommand@@V?$allocator@PEAUIExplorerCommand@@@std@@@std@@QEAAAEAPEAUIExplorerCommand@@_K@Z
	??A?$vector@V?$basic_string@_WU?$char_traits@_W@std@@V?$allocator@_W@2@@std@@V?$allocator@V?$basic_string@_WU?$char_traits@_W@std@@V?$allocator@_W@2@@std@@@2@@std@@QEAAAEAV?$basic_string@_WU?$char_traits@_W@std@@V?$allocator@_W@2@@1@_K@Z
	??A?$vector@V?$basic_string@_WU?$char_traits@_W@std@@V?$allocator@_W@2@@std@@V?$allocator@V?$basic_string@_WU?$char_traits@_W@std@@V?$allocator@_W@2@@std@@@2@@std@@QEBAAEBV?$basic_string@_WU?$char_traits@_W@std@@V?$allocator@_W@2@@1@_K@Z
	??B?$basic_string@_WU?$char_traits@_W@std@@V?$allocator@_W@2@@std@@QEBA?AV?$basic_string_view@_WU?$char_traits@_W@std@@@1@XZ
	??Kfilesystem@std@@YA?AVpath@01@AEBV201@0@Z
	??R<lambda_1dfe18491bcca09701d8ccb01d0b0af4>@@QEBA@QEA_WQEB_W_K12@Z
	??R<lambda_25953b27f3c43b57ba59f021c7f225c5>@@QEBA@QEA_WQEB_W_K_W@Z
	??R<lambda_3fa8b2c8193a0f3144fc4b1b8f243931>@@QEBA@QEA_W_KQEB_W@Z
	??R<lambda_967c2ed818824c5314a20ec3af46b793>@@QEBA@QEA_WQEB_W_K212@Z
	??R<lambda_a24d838e24f7bf386b11b5deac1e9da7>@@QEBA@PEA_W_K@Z
	??R<lambda_d27e2b2d334e86d578b418f53091db3c>@@QEBA@QEA_WQEB_W_K@Z
	??R<lambda_d4bb4d374dea09a911b8e82092ae283a>@@QEBA@AEBV?$vector@V?$basic_string@_WU?$char_traits@_W@std@@V?$allocator@_W@2@@std@@V?$allocator@V?$basic_string@_WU?$char_traits@_W@std@@V?$allocator@_W@2@@std@@@2@@std@@@Z
	??R_Is_slash_oper@filesystem@std@@SA_N_W@Z
	??Y?$basic_string@_WU?$char_traits@_W@std@@V?$allocator@_W@2@@std@@QEAAAEAV01@AEBV01@@Z
	??Y?$basic_string@_WU?$char_traits@_W@std@@V?$allocator@_W@2@@std@@QEAAAEAV01@QEB_W@Z
	??_0path@filesystem@std@@QEAAAEAV012@AEBV012@@Z
	??_7CRCMenuParent@@6B@
	??_7ClassFactory@@6B@
	??_7CommandEnum@@6B@
	??_7ExplorerCommandBase@@6B@
	??_7ExplorerCommandRoot@@6BIEnumExplorerCommand@@@
	??_7ExplorerCommandRoot@@6BIExplorerCommand@@@
	??_7bad_alloc@std@@6B@
	??_7bad_array_new_length@std@@6B@
	??_7exception@std@@6B@
	?AddRef@ClassFactory@@UEAAKXZ
	?AddRef@CommandEnum@@UEAAKXZ
	?AddRef@ExplorerCommandBase@@UEAAKXZ
	?AddRef@ExplorerCommandRoot@@UEAAKXZ
	?AddRef@ExplorerCommandRoot@@W7EAAKXZ
	?Clone@CommandEnum@@UEAAJPEAPEAUIEnumExplorerCommand@@@Z
	?Clone@ExplorerCommandRoot@@UEAAJPEAPEAUIEnumExplorerCommand@@@Z
	?CollectPaths@ExplorerCommandBase@@SAXPEAUIShellItemArray@@AEAV?$vector@V?$basic_string@_WU?$char_traits@_W@std@@V?$allocator@_W@2@@std@@V?$allocator@V?$basic_string@_WU?$char_traits@_W@std@@V?$allocator@_W@2@@std@@@2@@std@@@Z
	?CreateInstance@ClassFactory@@UEAAJPEAUIUnknown@@AEBU_GUID@@PEAPEAX@Z
	?EnumSubCommands@CRCMenuParent@@UEAAJPEAPEAUIEnumExplorerCommand@@@Z
	?EnumSubCommands@ExplorerCommandBase@@UEAAJPEAPEAUIEnumExplorerCommand@@@Z
	?EnumSubCommands@ExplorerCommandRoot@@UEAAJPEAPEAUIEnumExplorerCommand@@@Z
	?GetCanonicalName@ExplorerCommandBase@@UEAAJPEAU_GUID@@@Z
	?GetCanonicalName@ExplorerCommandRoot@@UEAAJPEAU_GUID@@@Z
	?GetFlags@ExplorerCommandBase@@UEAAJPEAK@Z
	?GetFlags@ExplorerCommandRoot@@UEAAJPEAK@Z
	?GetIcon@ExplorerCommandBase@@UEAAJPEAUIShellItemArray@@PEAPEA_W@Z
	?GetIcon@ExplorerCommandRoot@@UEAAJPEAUIShellItemArray@@PEAPEA_W@Z
	?GetState@ExplorerCommandBase@@UEAAJPEAUIShellItemArray@@HPEAK@Z
	?GetState@ExplorerCommandRoot@@UEAAJPEAUIShellItemArray@@HPEAK@Z
	?GetTitle@ExplorerCommandBase@@UEAAJPEAUIShellItemArray@@PEAPEA_W@Z
	?GetTitle@ExplorerCommandRoot@@UEAAJPEAUIShellItemArray@@PEAPEA_W@Z
	?GetToolTip@ExplorerCommandBase@@UEAAJPEAUIShellItemArray@@PEAPEA_W@Z
	?GetToolTip@ExplorerCommandRoot@@UEAAJPEAUIShellItemArray@@PEAPEA_W@Z
	?Invoke@ExplorerCommandBase@@UEAAJPEAUIShellItemArray@@PEAUIBindCtx@@@Z
	?Invoke@ExplorerCommandRoot@@UEAAJPEAUIShellItemArray@@PEAUIBindCtx@@@Z
	?LockServer@ClassFactory@@UEAAJH@Z
	?Next@CommandEnum@@UEAAJKPEAPEAUIExplorerCommand@@PEAK@Z
	?Next@ExplorerCommandRoot@@UEAAJKPEAPEAUIExplorerCommand@@PEAK@Z
	?QueryInterface@ClassFactory@@UEAAJAEBU_GUID@@PEAPEAX@Z
	?QueryInterface@CommandEnum@@UEAAJAEBU_GUID@@PEAPEAX@Z
	?QueryInterface@ExplorerCommandBase@@UEAAJAEBU_GUID@@PEAPEAX@Z
	?QueryInterface@ExplorerCommandRoot@@UEAAJAEBU_GUID@@PEAPEAX@Z
	?QueryInterface@ExplorerCommandRoot@@W7EAAJAEBU_GUID@@PEAPEAX@Z
	?Release@ClassFactory@@UEAAKXZ
	?Release@CommandEnum@@UEAAKXZ
	?Release@ExplorerCommandBase@@UEAAKXZ
	?Release@ExplorerCommandRoot@@UEAAKXZ
	?Release@ExplorerCommandRoot@@W7EAAKXZ
	?Reset@CommandEnum@@UEAAJXZ
	?Reset@ExplorerCommandRoot@@UEAAJXZ
	?Skip@CommandEnum@@UEAAJK@Z
	?Skip@ExplorerCommandRoot@@UEAAJK@Z
	?_Activate_SSO_buffer@?$_String_val@U?$_Simple_types@_W@std@@@std@@QEAAXXZ
	?_Adjust_manually_vector_aligned@std@@YAXAEAPEAXAEA_K@Z
	?_Alloc_proxy@_Container_base0@std@@QEAAXAEBU_Fake_allocator@2@@Z
	?_Allocate@_Default_allocate_traits@std@@SAPEAX_K@Z
	?_Buy_nonzero@?$vector@PEAUIExplorerCommand@@V?$allocator@PEAUIExplorerCommand@@@std@@@std@@AEAAX_K@Z
	?_Buy_raw@?$vector@PEAUIExplorerCommand@@V?$allocator@PEAUIExplorerCommand@@@std@@@std@@AEAAX_K@Z
	?_Calculate_growth@?$basic_string@_WU?$char_traits@_W@std@@V?$allocator@_W@2@@std@@AEBA_K_K@Z
	?_Calculate_growth@?$basic_string@_WU?$char_traits@_W@std@@V?$allocator@_W@2@@std@@CA_K_K00@Z
	?_Calculate_growth@?$vector@PEAUIExplorerCommand@@V?$allocator@PEAUIExplorerCommand@@@std@@@std@@AEBA_K_K@Z
	?_Calculate_growth@?$vector@V?$basic_string@_WU?$char_traits@_W@std@@V?$allocator@_W@2@@std@@V?$allocator@V?$basic_string@_WU?$char_traits@_W@std@@V?$allocator@_W@2@@std@@@2@@std@@AEBA_K_K@Z
	?_Change_array@?$vector@PEAUIExplorerCommand@@V?$allocator@PEAUIExplorerCommand@@@std@@@std@@AEAAXQEAPEAUIExplorerCommand@@_K1@Z
	?_Change_array@?$vector@V?$basic_string@_WU?$char_traits@_W@std@@V?$allocator@_W@2@@std@@V?$allocator@V?$basic_string@_WU?$char_traits@_W@std@@V?$allocator@_W@2@@std@@@2@@std@@AEAAXQEAV?$basic_string@_WU?$char_traits@_W@std@@V?$allocator@_W@2@@2@_K1@Z
	?_Check_offset@?$_String_val@U?$_Simple_types@_W@std@@@std@@QEBAX_K@Z
	?_Construct_empty@?$basic_string@_WU?$char_traits@_W@std@@V?$allocator@_W@2@@std@@AEAAXXZ
	?_Deallocate_for_capacity@?$basic_string@_WU?$char_traits@_W@std@@V?$allocator@_W@2@@std@@CAXAEAV?$allocator@_W@2@QEA_W_K@Z
	?_Eos@?$basic_string@_WU?$char_traits@_W@std@@V?$allocator@_W@2@@std@@AEAAX_K@Z
	?_Find_extension@filesystem@std@@YAPEB_WQEB_W0@Z
	?_Find_filename@filesystem@std@@YAPEB_WQEB_WPEB_W@Z
	?_Find_relative_path@filesystem@std@@YAPEB_WQEB_W0@Z
	?_Find_root_name_end@filesystem@std@@YAPEB_WQEB_W0@Z
	?_Get_first@?$_Compressed_pair@V?$allocator@PEAUIExplorerCommand@@@std@@V?$_Vector_val@U?$_Simple_types@PEAUIExplorerCommand@@@std@@@2@$00@std@@QEAAAEAV?$allocator@PEAUIExplorerCommand@@@2@XZ
	?_Get_first@?$_Compressed_pair@V?$allocator@PEAUIExplorerCommand@@@std@@V?$_Vector_val@U?$_Simple_types@PEAUIExplorerCommand@@@std@@@2@$00@std@@QEBAAEBV?$allocator@PEAUIExplorerCommand@@@2@XZ
	?_Get_first@?$_Compressed_pair@V?$allocator@V?$basic_string@_WU?$char_traits@_W@std@@V?$allocator@_W@2@@std@@@std@@V?$_Vector_val@U?$_Simple_types@V?$basic_string@_WU?$char_traits@_W@std@@V?$allocator@_W@2@@std@@@std@@@2@$00@std@@QEAAAEAV?$allocator@V?$basic_string@_WU?$char_traits@_W@std@@V?$allocator@_W@2@@std@@@2@XZ
	?_Get_first@?$_Compressed_pair@V?$allocator@V?$basic_string@_WU?$char_traits@_W@std@@V?$allocator@_W@2@@std@@@std@@V?$_Vector_val@U?$_Simple_types@V?$basic_string@_WU?$char_traits@_W@std@@V?$allocator@_W@2@@std@@@std@@@2@$00@std@@QEBAAEBV?$allocator@V?$basic_string@_WU?$char_traits@_W@std@@V?$allocator@_W@2@@std@@@2@XZ
	?_Get_first@?$_Compressed_pair@V?$allocator@_W@std@@V?$_String_val@U?$_Simple_types@_W@std@@@2@$00@std@@QEAAAEAV?$allocator@_W@2@XZ
	?_Get_first@?$_Compressed_pair@V?$allocator@_W@std@@V?$_String_val@U?$_Simple_types@_W@std@@@2@$00@std@@QEBAAEBV?$allocator@_W@2@XZ
	?_Getal@?$basic_string@_WU?$char_traits@_W@std@@V?$allocator@_W@2@@std@@AEAAAEAV?$allocator@_W@2@XZ
	?_Getal@?$basic_string@_WU?$char_traits@_W@std@@V?$allocator@_W@2@@std@@AEBAAEBV?$allocator@_W@2@XZ
	?_Getal@?$vector@PEAUIExplorerCommand@@V?$allocator@PEAUIExplorerCommand@@@std@@@std@@AEAAAEAV?$allocator@PEAUIExplorerCommand@@@2@XZ
	?_Getal@?$vector@PEAUIExplorerCommand@@V?$allocator@PEAUIExplorerCommand@@@std@@@std@@AEBAAEBV?$allocator@PEAUIExplorerCommand@@@2@XZ
	?_Getal@?$vector@V?$basic_string@_WU?$char_traits@_W@std@@V?$allocator@_W@2@@std@@V?$allocator@V?$basic_string@_WU?$char_traits@_W@std@@V?$allocator@_W@2@@std@@@2@@std@@AEAAAEAV?$allocator@V?$basic_string@_WU?$char_traits@_W@std@@V?$allocator@_W@2@@std@@@2@XZ
	?_Getal@?$vector@V?$basic_string@_WU?$char_traits@_W@std@@V?$allocator@_W@2@@std@@V?$allocator@V?$basic_string@_WU?$char_traits@_W@std@@V?$allocator@_W@2@@std@@@2@@std@@AEBAAEBV?$allocator@V?$basic_string@_WU?$char_traits@_W@std@@V?$allocator@_W@2@@std@@@2@XZ
	?_Has_drive_letter_prefix@filesystem@std@@YA_NQEB_W0@Z
	?_Is_constant_evaluated@std@@YA_NXZ
	?_Is_drive_prefix@filesystem@std@@YA_NQEB_W@Z
	?_Large_mode_engaged@?$_String_val@U?$_Simple_types@_W@std@@@std@@QEBA_NXZ
	?_Maklocwcs@std@@YAPEA_WPEB_W@Z
	?_Myptr@?$_String_val@U?$_Simple_types@_W@std@@@std@@QEAAPEA_WXZ
	?_Myptr@?$_String_val@U?$_Simple_types@_W@std@@@std@@QEBAPEB_WXZ
	?_Orphan_all@_Container_base0@std@@QEAAXXZ
	?_Orphan_range@?$vector@PEAUIExplorerCommand@@V?$allocator@PEAUIExplorerCommand@@@std@@@std@@AEBAXPEAPEAUIExplorerCommand@@0@Z
	?_Orphan_range@?$vector@V?$basic_string@_WU?$char_traits@_W@std@@V?$allocator@_W@2@@std@@V?$allocator@V?$basic_string@_WU?$char_traits@_W@std@@V?$allocator@_W@2@@std@@@2@@std@@AEBAXPEAV?$basic_string@_WU?$char_traits@_W@std@@V?$allocator@_W@2@@2@0@Z
	?_Parse_extension@filesystem@std@@YA?AV?$basic_string_view@_WU?$char_traits@_W@std@@@2@V32@@Z
	?_Parse_filename@filesystem@std@@YA?AV?$basic_string_view@_WU?$char_traits@_W@std@@@2@V32@@Z
	?_Parse_parent_path@filesystem@std@@YA?AV?$basic_string_view@_WU?$char_traits@_W@std@@@2@V32@@Z
	?_Parse_stem@filesystem@std@@YA?AV?$basic_string_view@_WU?$char_traits@_W@std@@@2@V32@@Z
	?_Range_compare@filesystem@std@@YAHQEB_W000@Z
	?_Release@?$_Uninitialized_backout_al@V?$allocator@PEAUIExplorerCommand@@@std@@@std@@QEAAPEAPEAUIExplorerCommand@@XZ
	?_Release@?$_Uninitialized_backout_al@V?$allocator@V?$basic_string@_WU?$char_traits@_W@std@@V?$allocator@_W@2@@std@@@std@@@std@@QEAAPEAV?$basic_string@_WU?$char_traits@_W@std@@V?$allocator@_W@2@@2@XZ
	?_Release@_Fake_proxy_ptr_impl@std@@QEAAXXZ
	?_Swap_proxy_and_iterators@?$basic_string@_WU?$char_traits@_W@std@@V?$allocator@_W@2@@std@@AEAAXAEAV12@@Z
	?_Swap_proxy_and_iterators@_Container_base0@std@@QEAAXAEAU12@@Z
	?_Switch_to_buf@_Bxty@?$_String_val@U?$_Simple_types@_W@std@@@std@@QEAAXXZ
	?_Take_contents@?$basic_string@_WU?$char_traits@_W@std@@V?$allocator@_W@2@@std@@AEAAXAEAV12@@Z
	?_Throw_bad_array_new_length@std@@YAXXZ
	?_Tidy@?$vector@PEAUIExplorerCommand@@V?$allocator@PEAUIExplorerCommand@@@std@@@std@@AEAAXXZ
	?_Tidy@?$vector@V?$basic_string@_WU?$char_traits@_W@std@@V?$allocator@_W@2@@std@@V?$allocator@V?$basic_string@_WU?$char_traits@_W@std@@V?$allocator@_W@2@@std@@@2@@std@@AEAAXXZ
	?_Tidy_deallocate@?$basic_string@_WU?$char_traits@_W@std@@V?$allocator@_W@2@@std@@AEAAXXZ
	?_Unchecked_begin@?$vector@PEAUIExplorerCommand@@V?$allocator@PEAUIExplorerCommand@@@std@@@std@@QEAAPEAPEAUIExplorerCommand@@XZ
	?_Unchecked_begin@?$vector@V?$basic_string@_WU?$char_traits@_W@std@@V?$allocator@_W@2@@std@@V?$allocator@V?$basic_string@_WU?$char_traits@_W@std@@V?$allocator@_W@2@@std@@@2@@std@@QEAAPEAV?$basic_string@_WU?$char_traits@_W@std@@V?$allocator@_W@2@@2@XZ
	?_Unchecked_begin@?$vector@V?$basic_string@_WU?$char_traits@_W@std@@V?$allocator@_W@2@@std@@V?$allocator@V?$basic_string@_WU?$char_traits@_W@std@@V?$allocator@_W@2@@std@@@2@@std@@QEBAPEBV?$basic_string@_WU?$char_traits@_W@std@@V?$allocator@_W@2@@2@XZ
	?_Unchecked_end@?$vector@PEAUIExplorerCommand@@V?$allocator@PEAUIExplorerCommand@@@std@@@std@@QEAAPEAPEAUIExplorerCommand@@XZ
	?_Unchecked_end@?$vector@V?$basic_string@_WU?$char_traits@_W@std@@V?$allocator@_W@2@@std@@V?$allocator@V?$basic_string@_WU?$char_traits@_W@std@@V?$allocator@_W@2@@std@@@2@@std@@QEAAPEAV?$basic_string@_WU?$char_traits@_W@std@@V?$allocator@_W@2@@2@XZ
	?_Unchecked_end@?$vector@V?$basic_string@_WU?$char_traits@_W@std@@V?$allocator@_W@2@@std@@V?$allocator@V?$basic_string@_WU?$char_traits@_W@std@@V?$allocator@_W@2@@std@@@2@@std@@QEBAPEBV?$basic_string@_WU?$char_traits@_W@std@@V?$allocator@_W@2@@2@XZ
	?_Xlen_string@std@@YAXXZ
	?_Xlength@?$vector@PEAUIExplorerCommand@@V?$allocator@PEAUIExplorerCommand@@@std@@@std@@CAXXZ
	?_Xlength@?$vector@V?$basic_string@_WU?$char_traits@_W@std@@V?$allocator@_W@2@@std@@V?$allocator@V?$basic_string@_WU?$char_traits@_W@std@@V?$allocator@_W@2@@std@@@2@@std@@CAXXZ
	?_Xran@?$_String_val@U?$_Simple_types@_W@std@@@std@@SAXXZ
	?allocate@?$allocator@PEAUIExplorerCommand@@@std@@QEAAPEAPEAUIExplorerCommand@@_K@Z
	?allocate@?$allocator@V?$basic_string@_WU?$char_traits@_W@std@@V?$allocator@_W@2@@std@@@std@@QEAAPEAV?$basic_string@_WU?$char_traits@_W@std@@V?$allocator@_W@2@@2@_K@Z
	?allocate@?$allocator@_W@std@@QEAAPEA_W_K@Z
	?append@?$basic_string@_WU?$char_traits@_W@std@@V?$allocator@_W@2@@std@@QEAAAEAV12@AEBV12@@Z
	?append@?$basic_string@_WU?$char_traits@_W@std@@V?$allocator@_W@2@@std@@QEAAAEAV12@QEB_W@Z
	?append@?$basic_string@_WU?$char_traits@_W@std@@V?$allocator@_W@2@@std@@QEAAAEAV12@QEB_W_K@Z
	?assign@?$_WChar_traits@_W@std@@SAXAEA_WAEB_W@Z
	?assign@?$basic_string@_WU?$char_traits@_W@std@@V?$allocator@_W@2@@std@@QEAAAEAV12@QEB_W@Z
	?assign@?$basic_string@_WU?$char_traits@_W@std@@V?$allocator@_W@2@@std@@QEAAAEAV12@QEB_W_K@Z
	?c_str@?$basic_string@_WU?$char_traits@_W@std@@V?$allocator@_W@2@@std@@QEBAPEB_WXZ
	?capacity@?$vector@PEAUIExplorerCommand@@V?$allocator@PEAUIExplorerCommand@@@std@@@std@@QEBA_KXZ
	?capacity@?$vector@V?$basic_string@_WU?$char_traits@_W@std@@V?$allocator@_W@2@@std@@V?$allocator@V?$basic_string@_WU?$char_traits@_W@std@@V?$allocator@_W@2@@std@@@2@@std@@QEBA_KXZ
	?clear@?$vector@V?$basic_string@_WU?$char_traits@_W@std@@V?$allocator@_W@2@@std@@V?$allocator@V?$basic_string@_WU?$char_traits@_W@std@@V?$allocator@_W@2@@std@@@2@@std@@QEAAXXZ
	?compare@?$_WChar_traits@_W@std@@SAHQEB_W0_K@Z
	?compare@path@filesystem@std@@QEBAHAEBV123@@Z
	?compare@path@filesystem@std@@QEBAHV?$basic_string_view@_WU?$char_traits@_W@std@@@3@@Z
	?copy@?$_Char_traits@_WG@std@@SAPEA_WQEA_WQEB_W_K@Z
	?data@?$basic_string@_WU?$char_traits@_W@std@@V?$allocator@_W@2@@std@@QEAAPEA_WXZ
	?data@?$basic_string@_WU?$char_traits@_W@std@@V?$allocator@_W@2@@std@@QEBAPEB_WXZ
	?data@?$basic_string_view@_WU?$char_traits@_W@std@@@std@@QEBAPEB_WXZ
	?deallocate@?$allocator@PEAUIExplorerCommand@@@std@@QEAAXQEAPEAUIExplorerCommand@@_K@Z
	?deallocate@?$allocator@V?$basic_string@_WU?$char_traits@_W@std@@V?$allocator@_W@2@@std@@@std@@QEAAXQEAV?$basic_string@_WU?$char_traits@_W@std@@V?$allocator@_W@2@@2@_K@Z
	?deallocate@?$allocator@_W@std@@QEAAXQEA_W_K@Z
	?empty@?$basic_string@_WU?$char_traits@_W@std@@V?$allocator@_W@2@@std@@QEBA_NXZ
	?empty@?$vector@V?$basic_string@_WU?$char_traits@_W@std@@V?$allocator@_W@2@@std@@V?$allocator@V?$basic_string@_WU?$char_traits@_W@std@@V?$allocator@_W@2@@std@@@2@@std@@QEBA_NXZ
	?empty@path@filesystem@std@@QEBA_NXZ
	?erase@?$basic_string@_WU?$char_traits@_W@std@@V?$allocator@_W@2@@std@@QEAAAEAV12@_K@Z
	?extension@path@filesystem@std@@QEBA?AV123@XZ
	?filename@path@filesystem@std@@QEBA?AV123@XZ
	?insert@?$basic_string@_WU?$char_traits@_W@std@@V?$allocator@_W@2@@std@@QEAAAEAV12@_KQEB_W0@Z
	?insert@?$basic_string@_WU?$char_traits@_W@std@@V?$allocator@_W@2@@std@@QEAAAEAV12@_KQEB_W@Z
	?is_absolute@path@filesystem@std@@QEBA_NXZ
	?length@?$_WChar_traits@_W@std@@SA_KPEB_W@Z
	?max_size@?$_Default_allocator_traits@V?$allocator@PEAUIExplorerCommand@@@std@@@std@@SA_KAEBV?$allocator@PEAUIExplorerCommand@@@2@@Z
	?max_size@?$_Default_allocator_traits@V?$allocator@V?$basic_string@_WU?$char_traits@_W@std@@V?$allocator@_W@2@@std@@@std@@@std@@SA_KAEBV?$allocator@V?$basic_string@_WU?$char_traits@_W@std@@V?$allocator@_W@2@@std@@@2@@Z
	?max_size@?$_Default_allocator_traits@V?$allocator@_W@std@@@std@@SA_KAEBV?$allocator@_W@2@@Z
	?max_size@?$basic_string@_WU?$char_traits@_W@std@@V?$allocator@_W@2@@std@@QEBA_KXZ
	?max_size@?$vector@PEAUIExplorerCommand@@V?$allocator@PEAUIExplorerCommand@@@std@@@std@@QEBA_KXZ
	?max_size@?$vector@V?$basic_string@_WU?$char_traits@_W@std@@V?$allocator@_W@2@@std@@V?$allocator@V?$basic_string@_WU?$char_traits@_W@std@@V?$allocator@_W@2@@std@@@2@@std@@QEBA_KXZ
	?move@?$_Char_traits@_WG@std@@SAPEA_WQEA_WQEB_W_K@Z
	?parent_path@path@filesystem@std@@QEBA?AV123@XZ
	?push_back@?$basic_string@_WU?$char_traits@_W@std@@V?$allocator@_W@2@@std@@QEAAX_W@Z
	?push_back@?$vector@PEAUIExplorerCommand@@V?$allocator@PEAUIExplorerCommand@@@std@@@std@@QEAAX$$QEAPEAUIExplorerCommand@@@Z
	?push_back@?$vector@V?$basic_string@_WU?$char_traits@_W@std@@V?$allocator@_W@2@@std@@V?$allocator@V?$basic_string@_WU?$char_traits@_W@std@@V?$allocator@_W@2@@std@@@2@@std@@QEAAX$$QEAV?$basic_string@_WU?$char_traits@_W@std@@V?$allocator@_W@2@@2@@Z
	?select_on_container_copy_construction@?$_Default_allocator_traits@V?$allocator@PEAUIExplorerCommand@@@std@@@std@@SA?AV?$allocator@PEAUIExplorerCommand@@@2@AEBV32@@Z
	?select_on_container_copy_construction@?$_Default_allocator_traits@V?$allocator@_W@std@@@std@@SA?AV?$allocator@_W@2@AEBV32@@Z
	?size@?$basic_string@_WU?$char_traits@_W@std@@V?$allocator@_W@2@@std@@QEBA_KXZ
	?size@?$basic_string_view@_WU?$char_traits@_W@std@@@std@@QEBA_KXZ
	?size@?$vector@PEAUIExplorerCommand@@V?$allocator@PEAUIExplorerCommand@@@std@@@std@@QEBA_KXZ
	?size@?$vector@V?$basic_string@_WU?$char_traits@_W@std@@V?$allocator@_W@2@@std@@V?$allocator@V?$basic_string@_WU?$char_traits@_W@std@@V?$allocator@_W@2@@std@@@2@@std@@QEBA_KXZ
	?stem@path@filesystem@std@@QEBA?AV123@XZ
	?what@exception@std@@UEBAPEBDXZ
	?wstring@path@filesystem@std@@QEBA?AV?$basic_string@_WU?$char_traits@_W@std@@V?$allocator@_W@2@@3@XZ
	DllCanUnloadNow
	DllGetClassObject
	DllMain
	IsEqualGUID
	wmemcmp
	wmemcpy
